; Function Attrs: nounwind uwtable
define dso_local void @ExecEvalAggOrderedTransDatum(ptr noundef readnone captures(none) %0, ptr noundef readonly captures(none) %1, ptr noundef readnone captures(none) %2) local_unnamed_addr #0 {
  %4 = getelementptr inbounds nuw i8, ptr %1, i64 24
  %5 = load ptr, ptr %4, align 8
  %6 = getelementptr inbounds nuw i8, ptr %1, i64 40
  %7 = load i32, ptr %6, align 8
  %8 = getelementptr inbounds nuw i8, ptr %5, i64 344
  %9 = load ptr, ptr %8, align 8
  %10 = sext i32 %7 to i64
  %11 = getelementptr inbounds ptr, ptr %9, i64 %10
  %12 = load ptr, ptr %11, align 8
  %13 = getelementptr inbounds nuw i8, ptr %1, i64 8
  %14 = load ptr, ptr %13, align 8
  %15 = load i64, ptr %14, align 8
  %16 = getelementptr inbounds nuw i8, ptr %1, i64 16
  %17 = load ptr, ptr %16, align 8
  %18 = load i8, ptr %17, align 1, !range !8, !noundef !9
  %19 = trunc nuw i8 %18 to i1
  tail call void @tuplesort_putdatum(ptr noundef %12, i64 noundef %15, i1 noundef zeroext %19) #18
  ret void
}